target datalayout = "e-m:e-p270:32:32-p271:32:32-p272:64:64-i64:64-i128:128-f80:128-n8:16:32:64-S128"
target triple = "x86_64-pc-linux-gnu"

%class.UPerfTest = type { ptr, i32, ptr, ptr, ptr, ptr, ptr, i8, ptr, ptr, i32, ptr, i32, i8, ptr, i32, i8, i8, i32, i32, i32, ptr, ptr, ptr }

@.str = private unnamed_addr constant [1 x i8] zeroinitializer, align 1
@.str.1 = private unnamed_addr constant [2 x i8] c".\00", align 1

; Function Attrs: mustprogress uwtable
define void @_ZN9UPerfTestC2EiPPKcP7UOptioniS1_R10UErrorCode(ptr noundef nonnull align 8 dereferenceable(160) %0, i32 noundef %1, ptr noundef %2, ptr noundef %3, i32 noundef %4, ptr noundef %5, ptr noundef nonnull align 4 dereferenceable(4) %6) unnamed_addr #2 align 2 {
  %8 = alloca ptr, align 8
  %9 = alloca i32, align 4
  %10 = alloca ptr, align 8
  %11 = alloca ptr, align 8
  %12 = alloca i32, align 4
  %13 = alloca ptr, align 8
  %14 = alloca ptr, align 8
  store ptr %0, ptr %8, align 8, !tbaa !8
  store i32 %1, ptr %9, align 4, !tbaa !10
  store ptr %2, ptr %10, align 8, !tbaa !12
  store ptr %3, ptr %11, align 8, !tbaa !42
  store i32 %4, ptr %12, align 4, !tbaa !10
  store ptr %5, ptr %13, align 8, !tbaa !51
  store ptr %6, ptr %14, align 8, !tbaa !15
  %15 = load ptr, ptr %8, align 8
  store ptr getelementptr inbounds inrange(-16, 48) ({ [8 x ptr] }, ptr @_ZTV9UPerfTest, i32 0, i32 0, i32 2), ptr %15, align 8, !tbaa !16
  %16 = getelementptr inbounds nuw %class.UPerfTest, ptr %15, i32 0, i32 1
  %17 = load i32, ptr %9, align 4, !tbaa !10
  store i32 %17, ptr %16, align 8, !tbaa !18
  %18 = getelementptr inbounds nuw %class.UPerfTest, ptr %15, i32 0, i32 2
  %19 = load ptr, ptr %10, align 8, !tbaa !12
  store ptr %19, ptr %18, align 8, !tbaa !24
  %20 = getelementptr inbounds nuw %class.UPerfTest, ptr %15, i32 0, i32 3
  %21 = load ptr, ptr %13, align 8, !tbaa !51
  store ptr %21, ptr %20, align 8, !tbaa !25
  %22 = getelementptr inbounds nuw %class.UPerfTest, ptr %15, i32 0, i32 5
  store ptr null, ptr %22, align 8, !tbaa !26
  %23 = getelementptr inbounds nuw %class.UPerfTest, ptr %15, i32 0, i32 6
  store ptr @.str, ptr %23, align 8, !tbaa !27
  %24 = getelementptr inbounds nuw %class.UPerfTest, ptr %15, i32 0, i32 7
  store i8 0, ptr %24, align 8, !tbaa !28
  %25 = getelementptr inbounds nuw %class.UPerfTest, ptr %15, i32 0, i32 8
  store ptr null, ptr %25, align 8, !tbaa !29
  %26 = getelementptr inbounds nuw %class.UPerfTest, ptr %15, i32 0, i32 9
  store ptr @.str.1, ptr %26, align 8, !tbaa !30
  %27 = getelementptr inbounds nuw %class.UPerfTest, ptr %15, i32 0, i32 11
  store ptr null, ptr %27, align 8, !tbaa !31
  %28 = getelementptr inbounds nuw %class.UPerfTest, ptr %15, i32 0, i32 12
  store i32 0, ptr %28, align 8, !tbaa !32
  %29 = getelementptr inbounds nuw %class.UPerfTest, ptr %15, i32 0, i32 13
  store i8 1, ptr %29, align 4, !tbaa !33
  %30 = getelementptr inbounds nuw %class.UPerfTest, ptr %15, i32 0, i32 14
  store ptr null, ptr %30, align 8, !tbaa !34
  %31 = getelementptr inbounds nuw %class.UPerfTest, ptr %15, i32 0, i32 15
  store i32 0, ptr %31, align 8, !tbaa !35
  %32 = getelementptr inbounds nuw %class.UPerfTest, ptr %15, i32 0, i32 16
  store i8 0, ptr %32, align 4, !tbaa !36
  %33 = getelementptr inbounds nuw %class.UPerfTest, ptr %15, i32 0, i32 17
  store i8 0, ptr %33, align 1, !tbaa !37
  %34 = getelementptr inbounds nuw %class.UPerfTest, ptr %15, i32 0, i32 18
  store i32 1, ptr %34, align 8, !tbaa !38
  %35 = getelementptr inbounds nuw %class.UPerfTest, ptr %15, i32 0, i32 19
  store i32 0, ptr %35, align 4, !tbaa !39
  %36 = getelementptr inbounds nuw %class.UPerfTest, ptr %15, i32 0, i32 20
  store i32 0, ptr %36, align 8, !tbaa !40
  %37 = getelementptr inbounds nuw %class.UPerfTest, ptr %15, i32 0, i32 21
  store ptr null, ptr %37, align 8, !tbaa !41
  %38 = load ptr, ptr %11, align 8, !tbaa !42
  %39 = load i32, ptr %12, align 4, !tbaa !10
  %40 = load ptr, ptr %14, align 8, !tbaa !15
  call void @_ZN9UPerfTest4initEP7UOptioniR10UErrorCode(ptr noundef nonnull align 8 dereferenceable(160) %15, ptr noundef %38, i32 noundef %39, ptr noundef nonnull align 4 dereferenceable(4) %40)
  ret void
}